; Function Attrs: mustprogress uwtable
define hidden noundef zeroext i1 @_ZN4perf10Regression8isVectorERKN2cv11_InputArrayE(ptr noundef nonnull align 8 dereferenceable(24) %0) local_unnamed_addr #5 align 2 {
  %2 = tail call noundef i32 @_ZNK2cv11_InputArray4kindEv(ptr noundef nonnull align 8 dereferenceable(24) %0)
  %3 = icmp eq i32 %2, 327680
  br i1 %3, label %10, label %4

4:                                                ; preds = %1
  %5 = tail call noundef i32 @_ZNK2cv11_InputArray4kindEv(ptr noundef nonnull align 8 dereferenceable(24) %0)
  %6 = icmp eq i32 %5, 262144
  br i1 %6, label %10, label %7

7:                                                ; preds = %4
  %8 = tail call noundef i32 @_ZNK2cv11_InputArray4kindEv(ptr noundef nonnull align 8 dereferenceable(24) %0)
  %9 = icmp eq i32 %8, 720896
  br label %10

10:                                               ; preds = %7, %4, %1
  %11 = phi i1 [ true, %4 ], [ true, %1 ], [ %9, %7 ]
  ret i1 %11
}